(dp1
S'session'
p2
(dp3
Vcaiyuhong6@gmail.com
p4
(dp5
S'picture'
p6
Vhttps://lh6.googleusercontent.com/--XyMR7WOvbo/AAAAAAAAAAI/AAAAAAAAAAA/G_LPRDiL8us/photo.jpg
p7
sS'name'
p8
Vyuhong cai
p9
sS'History'
p10
(dp11
S'world'
p12
I1
sS'happsd'
p13
I1
sS'hello'
p14
I1
sS'rapped'
p15
I2
sS'ravikantharaja'
p16
I1
sssS'_accessed_time'
p17
F1543873278.542727
sS'_creation_time'
p18
F1543870306.3645689
ss.