(dp1
S'session'
p2
(dp3
Vcaiyuhong6@gmail.com
p4
(dp5
S'picture'
p6
Vhttps://lh6.googleusercontent.com/--XyMR7WOvbo/AAAAAAAAAAI/AAAAAAAAAAA/G_LPRDiL8us/photo.jpg
p7
sS'name'
p8
Vyuhong cai
p9
sS'History'
p10
(dp11
Vword
p12
I24
sS'world'
p13
I16
sVyear
p14
I1
sVnew
p15
I1
sVhello
p16
I40
sVhappy
p17
I1
sssS'_accessed_time'
p18
F1543739369.8339651
sS'_creation_time'
p19
F1543735280.4855239
ss.