(dp1
S'session'
p2
(dp3
Vcaiyuhong6@gmail.com
p4
(dp5
S'picture'
p6
Vhttps://lh6.googleusercontent.com/--XyMR7WOvbo/AAAAAAAAAAI/AAAAAAAAAAA/G_LPRDiL8us/photo.jpg
p7
sS'name'
p8
Vyuhong cai
p9
sS'History'
p10
(dp11
S'word'
p12
I263
sS'professor'
p13
I38
sS'year'
p14
I4
sS'jr'
p15
I12
sS'new'
p16
I4
sS'world'
p17
I43
sS'happy'
p18
I4
sS'hello'
p19
I266
sS'he'
p20
I11
sssS'_accessed_time'
p21
F1543833580.1986639
sS'_creation_time'
p22
F1543740006.8480179
ss.