(dp1
S'session'
p2
(dp3
Vcaiyuhong6@gmail.com
p4
(dp5
S'picture'
p6
Vhttps://lh6.googleusercontent.com/--XyMR7WOvbo/AAAAAAAAAAI/AAAAAAAAAAA/G_LPRDiL8us/photo.jpg
p7
sS'name'
p8
Vyuhong cai
p9
sS'History'
p10
(dp11
S'world'
p12
I19
sS'hello'
p13
I19
sssS'_accessed_time'
p14
F1543881767.944386
sS'_creation_time'
p15
F1543881502.7486689
ss.