(dp1
S'session'
p2
(dp3
Vcaiyuhong6@gmail.com
p4
(dp5
S'picture'
p6
Vhttps://lh6.googleusercontent.com/--XyMR7WOvbo/AAAAAAAAAAI/AAAAAAAAAAA/G_LPRDiL8us/photo.jpg
p7
sS'name'
p8
Vyuhong cai
p9
sS'History'
p10
(dp11
Va
I2
sVc
I2
sVb
I2
sVe
I2
sVd
I2
sVg
I2
sVf
I2
sVi
I2
sVh
I2
sVk
I2
sVj
I2
sVyear
p12
I1
sV111
p13
I1
sVnew
p14
I1
sVword
p15
I3
sVhello
p16
I3
sVhappy
p17
I1
sssS'_accessed_time'
p18
F1540847400.5622449
sS'_creation_time'
p19
F1540711927.9698279
ss.